
_forktest:     file format elf32-i386


Disassembly of section .text:

00000000 <main>:
	printf(1, "fork test OK\n");
}

int
main(void)
{
   0:	55                   	push   %ebp
   1:	89 e5                	mov    %esp,%ebp
   3:	83 e4 f0             	and    $0xfffffff0,%esp
	forktest();
   6:	e8 35 00 00 00       	call   40 <forktest>
	exit();
   b:	e8 98 03 00 00       	call   3a8 <exit>

00000010 <printf>:

#define N 1000

void
printf(int fd, char *s, ...)
{
  10:	55                   	push   %ebp
  11:	89 e5                	mov    %esp,%ebp
  13:	53                   	push   %ebx
  14:	83 ec 14             	sub    $0x14,%esp
  17:	8b 5d 0c             	mov    0xc(%ebp),%ebx
	write(fd, s, strlen(s));
  1a:	89 1c 24             	mov    %ebx,(%esp)
  1d:	e8 7e 01 00 00       	call   1a0 <strlen>
  22:	89 5c 24 04          	mov    %ebx,0x4(%esp)
  26:	89 44 24 08          	mov    %eax,0x8(%esp)
  2a:	8b 45 08             	mov    0x8(%ebp),%eax
  2d:	89 04 24             	mov    %eax,(%esp)
  30:	e8 93 03 00 00       	call   3c8 <write>
}
  35:	83 c4 14             	add    $0x14,%esp
  38:	5b                   	pop    %ebx
  39:	5d                   	pop    %ebp
  3a:	c3                   	ret    
  3b:	90                   	nop
  3c:	8d 74 26 00          	lea    0x0(%esi,%eiz,1),%esi

00000040 <forktest>:

void
forktest(void)
{
  40:	55                   	push   %ebp
  41:	89 e5                	mov    %esp,%ebp
  43:	53                   	push   %ebx
	int n, pid;

	printf(1, "fork test\n");

	for (n = 0; n < N; n++) {
  44:	31 db                	xor    %ebx,%ebx
	write(fd, s, strlen(s));
}

void
forktest(void)
{
  46:	83 ec 14             	sub    $0x14,%esp
	int n, pid;

	printf(1, "fork test\n");
  49:	c7 44 24 04 50 04 00 	movl   $0x450,0x4(%esp)
  50:	00 
  51:	c7 04 24 01 00 00 00 	movl   $0x1,(%esp)
  58:	e8 b3 ff ff ff       	call   10 <printf>
  5d:	eb 13                	jmp    72 <forktest+0x32>
  5f:	90                   	nop

	for (n = 0; n < N; n++) {
		pid = fork();
		if (pid < 0) break;
		if (pid == 0) exit();
  60:	0f 84 97 00 00 00    	je     fd <forktest+0xbd>
{
	int n, pid;

	printf(1, "fork test\n");

	for (n = 0; n < N; n++) {
  66:	83 c3 01             	add    $0x1,%ebx
  69:	81 fb e8 03 00 00    	cmp    $0x3e8,%ebx
  6f:	90                   	nop
  70:	74 4e                	je     c0 <forktest+0x80>
		pid = fork();
  72:	e8 29 03 00 00       	call   3a0 <fork>
		if (pid < 0) break;
  77:	85 c0                	test   %eax,%eax
  79:	79 e5                	jns    60 <forktest+0x20>
	if (n == N) {
		printf(1, "fork claimed to work N times!\n", N);
		exit();
	}

	for (; n > 0; n--) {
  7b:	85 db                	test   %ebx,%ebx
  7d:	8d 76 00             	lea    0x0(%esi),%esi
  80:	74 15                	je     97 <forktest+0x57>
  82:	8d b6 00 00 00 00    	lea    0x0(%esi),%esi
		if (wait() < 0) {
  88:	e8 23 03 00 00       	call   3b0 <wait>
  8d:	85 c0                	test   %eax,%eax
  8f:	90                   	nop
  90:	78 57                	js     e9 <forktest+0xa9>
	if (n == N) {
		printf(1, "fork claimed to work N times!\n", N);
		exit();
	}

	for (; n > 0; n--) {
  92:	83 eb 01             	sub    $0x1,%ebx
  95:	75 f1                	jne    88 <forktest+0x48>
			printf(1, "wait stopped early\n");
			exit();
		}
	}

	if (wait() != -1) {
  97:	e8 14 03 00 00       	call   3b0 <wait>
  9c:	83 f8 ff             	cmp    $0xffffffff,%eax
  9f:	90                   	nop
  a0:	75 60                	jne    102 <forktest+0xc2>
		printf(1, "wait got too many\n");
		exit();
	}

	printf(1, "fork test OK\n");
  a2:	c7 44 24 04 82 04 00 	movl   $0x482,0x4(%esp)
  a9:	00 
  aa:	c7 04 24 01 00 00 00 	movl   $0x1,(%esp)
  b1:	e8 5a ff ff ff       	call   10 <printf>
}
  b6:	83 c4 14             	add    $0x14,%esp
  b9:	5b                   	pop    %ebx
  ba:	5d                   	pop    %ebp
  bb:	c3                   	ret    
  bc:	8d 74 26 00          	lea    0x0(%esi,%eiz,1),%esi
#define N 1000

void
printf(int fd, char *s, ...)
{
	write(fd, s, strlen(s));
  c0:	c7 04 24 90 04 00 00 	movl   $0x490,(%esp)
  c7:	e8 d4 00 00 00       	call   1a0 <strlen>
  cc:	c7 44 24 04 90 04 00 	movl   $0x490,0x4(%esp)
  d3:	00 
  d4:	c7 04 24 01 00 00 00 	movl   $0x1,(%esp)
  db:	89 44 24 08          	mov    %eax,0x8(%esp)
  df:	e8 e4 02 00 00       	call   3c8 <write>
		if (pid == 0) exit();
	}

	if (n == N) {
		printf(1, "fork claimed to work N times!\n", N);
		exit();
  e4:	e8 bf 02 00 00       	call   3a8 <exit>
	}

	for (; n > 0; n--) {
		if (wait() < 0) {
			printf(1, "wait stopped early\n");
  e9:	c7 44 24 04 5b 04 00 	movl   $0x45b,0x4(%esp)
  f0:	00 
  f1:	c7 04 24 01 00 00 00 	movl   $0x1,(%esp)
  f8:	e8 13 ff ff ff       	call   10 <printf>
			exit();
  fd:	e8 a6 02 00 00       	call   3a8 <exit>
		}
	}

	if (wait() != -1) {
		printf(1, "wait got too many\n");
 102:	c7 44 24 04 6f 04 00 	movl   $0x46f,0x4(%esp)
 109:	00 
 10a:	c7 04 24 01 00 00 00 	movl   $0x1,(%esp)
 111:	e8 fa fe ff ff       	call   10 <printf>
		exit();
 116:	e8 8d 02 00 00       	call   3a8 <exit>
 11b:	66 90                	xchg   %ax,%ax
 11d:	66 90                	xchg   %ax,%ax
 11f:	90                   	nop

00000120 <strcpy>:
#include "pstat.h"//include


char *
strcpy(char *s, char *t)
{
 120:	55                   	push   %ebp
 121:	89 e5                	mov    %esp,%ebp
 123:	8b 45 08             	mov    0x8(%ebp),%eax
 126:	8b 4d 0c             	mov    0xc(%ebp),%ecx
 129:	53                   	push   %ebx
	char *os;

	os = s;
	while ((*s++ = *t++) != 0)
 12a:	89 c2                	mov    %eax,%edx
 12c:	8d 74 26 00          	lea    0x0(%esi,%eiz,1),%esi
 130:	83 c1 01             	add    $0x1,%ecx
 133:	0f b6 59 ff          	movzbl -0x1(%ecx),%ebx
 137:	83 c2 01             	add    $0x1,%edx
 13a:	84 db                	test   %bl,%bl
 13c:	88 5a ff             	mov    %bl,-0x1(%edx)
 13f:	75 ef                	jne    130 <strcpy+0x10>
		;
	return os;
}
 141:	5b                   	pop    %ebx
 142:	5d                   	pop    %ebp
 143:	c3                   	ret    
 144:	8d b6 00 00 00 00    	lea    0x0(%esi),%esi
 14a:	8d bf 00 00 00 00    	lea    0x0(%edi),%edi

00000150 <strcmp>:

int
strcmp(const char *p, const char *q)
{
 150:	55                   	push   %ebp
 151:	89 e5                	mov    %esp,%ebp
 153:	8b 55 08             	mov    0x8(%ebp),%edx
 156:	53                   	push   %ebx
 157:	8b 4d 0c             	mov    0xc(%ebp),%ecx
	while (*p && *p == *q) p++, q++;
 15a:	0f b6 02             	movzbl (%edx),%eax
 15d:	84 c0                	test   %al,%al
 15f:	74 2d                	je     18e <strcmp+0x3e>
 161:	0f b6 19             	movzbl (%ecx),%ebx
 164:	38 d8                	cmp    %bl,%al
 166:	74 0e                	je     176 <strcmp+0x26>
 168:	eb 2b                	jmp    195 <strcmp+0x45>
 16a:	8d b6 00 00 00 00    	lea    0x0(%esi),%esi
 170:	38 c8                	cmp    %cl,%al
 172:	75 15                	jne    189 <strcmp+0x39>
 174:	89 d9                	mov    %ebx,%ecx
 176:	83 c2 01             	add    $0x1,%edx
 179:	0f b6 02             	movzbl (%edx),%eax
 17c:	8d 59 01             	lea    0x1(%ecx),%ebx
 17f:	0f b6 49 01          	movzbl 0x1(%ecx),%ecx
 183:	84 c0                	test   %al,%al
 185:	75 e9                	jne    170 <strcmp+0x20>
 187:	31 c0                	xor    %eax,%eax
	return (uchar)*p - (uchar)*q;
 189:	29 c8                	sub    %ecx,%eax
}
 18b:	5b                   	pop    %ebx
 18c:	5d                   	pop    %ebp
 18d:	c3                   	ret    
 18e:	0f b6 09             	movzbl (%ecx),%ecx
}

int
strcmp(const char *p, const char *q)
{
	while (*p && *p == *q) p++, q++;
 191:	31 c0                	xor    %eax,%eax
 193:	eb f4                	jmp    189 <strcmp+0x39>
 195:	0f b6 cb             	movzbl %bl,%ecx
 198:	eb ef                	jmp    189 <strcmp+0x39>
 19a:	8d b6 00 00 00 00    	lea    0x0(%esi),%esi

000001a0 <strlen>:
	return (uchar)*p - (uchar)*q;
}

uint
strlen(char *s)
{
 1a0:	55                   	push   %ebp
 1a1:	89 e5                	mov    %esp,%ebp
 1a3:	8b 4d 08             	mov    0x8(%ebp),%ecx
	int n;

	for (n = 0; s[n]; n++)
 1a6:	80 39 00             	cmpb   $0x0,(%ecx)
 1a9:	74 12                	je     1bd <strlen+0x1d>
 1ab:	31 d2                	xor    %edx,%edx
 1ad:	8d 76 00             	lea    0x0(%esi),%esi
 1b0:	83 c2 01             	add    $0x1,%edx
 1b3:	80 3c 11 00          	cmpb   $0x0,(%ecx,%edx,1)
 1b7:	89 d0                	mov    %edx,%eax
 1b9:	75 f5                	jne    1b0 <strlen+0x10>
		;
	return n;
}
 1bb:	5d                   	pop    %ebp
 1bc:	c3                   	ret    
uint
strlen(char *s)
{
	int n;

	for (n = 0; s[n]; n++)
 1bd:	31 c0                	xor    %eax,%eax
		;
	return n;
}
 1bf:	5d                   	pop    %ebp
 1c0:	c3                   	ret    
 1c1:	eb 0d                	jmp    1d0 <memset>
 1c3:	90                   	nop
 1c4:	90                   	nop
 1c5:	90                   	nop
 1c6:	90                   	nop
 1c7:	90                   	nop
 1c8:	90                   	nop
 1c9:	90                   	nop
 1ca:	90                   	nop
 1cb:	90                   	nop
 1cc:	90                   	nop
 1cd:	90                   	nop
 1ce:	90                   	nop
 1cf:	90                   	nop

000001d0 <memset>:

void *
memset(void *dst, int c, uint n)
{
 1d0:	55                   	push   %ebp
 1d1:	89 e5                	mov    %esp,%ebp
 1d3:	8b 55 08             	mov    0x8(%ebp),%edx
 1d6:	57                   	push   %edi
}

static inline void
stosb(void *addr, int data, int cnt)
{
	asm volatile("cld; rep stosb" : "=D"(addr), "=c"(cnt) : "0"(addr), "1"(cnt), "a"(data) : "memory", "cc");
 1d7:	8b 4d 10             	mov    0x10(%ebp),%ecx
 1da:	8b 45 0c             	mov    0xc(%ebp),%eax
 1dd:	89 d7                	mov    %edx,%edi
 1df:	fc                   	cld    
 1e0:	f3 aa                	rep stos %al,%es:(%edi)
	stosb(dst, c, n);
	return dst;
}
 1e2:	89 d0                	mov    %edx,%eax
 1e4:	5f                   	pop    %edi
 1e5:	5d                   	pop    %ebp
 1e6:	c3                   	ret    
 1e7:	89 f6                	mov    %esi,%esi
 1e9:	8d bc 27 00 00 00 00 	lea    0x0(%edi,%eiz,1),%edi

000001f0 <strchr>:

char *
strchr(const char *s, char c)
{
 1f0:	55                   	push   %ebp
 1f1:	89 e5                	mov    %esp,%ebp
 1f3:	8b 45 08             	mov    0x8(%ebp),%eax
 1f6:	53                   	push   %ebx
 1f7:	8b 55 0c             	mov    0xc(%ebp),%edx
	for (; *s; s++)
 1fa:	0f b6 18             	movzbl (%eax),%ebx
 1fd:	84 db                	test   %bl,%bl
 1ff:	74 1d                	je     21e <strchr+0x2e>
		if (*s == c) return (char *)s;
 201:	38 d3                	cmp    %dl,%bl
 203:	89 d1                	mov    %edx,%ecx
 205:	75 0d                	jne    214 <strchr+0x24>
 207:	eb 17                	jmp    220 <strchr+0x30>
 209:	8d b4 26 00 00 00 00 	lea    0x0(%esi,%eiz,1),%esi
 210:	38 ca                	cmp    %cl,%dl
 212:	74 0c                	je     220 <strchr+0x30>
}

char *
strchr(const char *s, char c)
{
	for (; *s; s++)
 214:	83 c0 01             	add    $0x1,%eax
 217:	0f b6 10             	movzbl (%eax),%edx
 21a:	84 d2                	test   %dl,%dl
 21c:	75 f2                	jne    210 <strchr+0x20>
		if (*s == c) return (char *)s;
	return 0;
 21e:	31 c0                	xor    %eax,%eax
}
 220:	5b                   	pop    %ebx
 221:	5d                   	pop    %ebp
 222:	c3                   	ret    
 223:	8d b6 00 00 00 00    	lea    0x0(%esi),%esi
 229:	8d bc 27 00 00 00 00 	lea    0x0(%edi,%eiz,1),%edi

00000230 <gets>:

char *
gets(char *buf, int max)
{
 230:	55                   	push   %ebp
 231:	89 e5                	mov    %esp,%ebp
 233:	57                   	push   %edi
 234:	56                   	push   %esi
	int  i, cc;
	char c;

	for (i = 0; i + 1 < max;) {
 235:	31 f6                	xor    %esi,%esi
	return 0;
}

char *
gets(char *buf, int max)
{
 237:	53                   	push   %ebx
 238:	83 ec 2c             	sub    $0x2c,%esp
	int  i, cc;
	char c;

	for (i = 0; i + 1 < max;) {
		cc = read(0, &c, 1);
 23b:	8d 7d e7             	lea    -0x19(%ebp),%edi
gets(char *buf, int max)
{
	int  i, cc;
	char c;

	for (i = 0; i + 1 < max;) {
 23e:	eb 31                	jmp    271 <gets+0x41>
		cc = read(0, &c, 1);
 240:	c7 44 24 08 01 00 00 	movl   $0x1,0x8(%esp)
 247:	00 
 248:	89 7c 24 04          	mov    %edi,0x4(%esp)
 24c:	c7 04 24 00 00 00 00 	movl   $0x0,(%esp)
 253:	e8 68 01 00 00       	call   3c0 <read>
		if (cc < 1) break;
 258:	85 c0                	test   %eax,%eax
 25a:	7e 1d                	jle    279 <gets+0x49>
		buf[i++] = c;
 25c:	0f b6 45 e7          	movzbl -0x19(%ebp),%eax
gets(char *buf, int max)
{
	int  i, cc;
	char c;

	for (i = 0; i + 1 < max;) {
 260:	89 de                	mov    %ebx,%esi
		cc = read(0, &c, 1);
		if (cc < 1) break;
		buf[i++] = c;
 262:	8b 55 08             	mov    0x8(%ebp),%edx
		if (c == '\n' || c == '\r') break;
 265:	3c 0d                	cmp    $0xd,%al
	char c;

	for (i = 0; i + 1 < max;) {
		cc = read(0, &c, 1);
		if (cc < 1) break;
		buf[i++] = c;
 267:	88 44 1a ff          	mov    %al,-0x1(%edx,%ebx,1)
		if (c == '\n' || c == '\r') break;
 26b:	74 0c                	je     279 <gets+0x49>
 26d:	3c 0a                	cmp    $0xa,%al
 26f:	74 08                	je     279 <gets+0x49>
gets(char *buf, int max)
{
	int  i, cc;
	char c;

	for (i = 0; i + 1 < max;) {
 271:	8d 5e 01             	lea    0x1(%esi),%ebx
 274:	3b 5d 0c             	cmp    0xc(%ebp),%ebx
 277:	7c c7                	jl     240 <gets+0x10>
		cc = read(0, &c, 1);
		if (cc < 1) break;
		buf[i++] = c;
		if (c == '\n' || c == '\r') break;
	}
	buf[i] = '\0';
 279:	8b 45 08             	mov    0x8(%ebp),%eax
 27c:	c6 04 30 00          	movb   $0x0,(%eax,%esi,1)
	return buf;
}
 280:	83 c4 2c             	add    $0x2c,%esp
 283:	5b                   	pop    %ebx
 284:	5e                   	pop    %esi
 285:	5f                   	pop    %edi
 286:	5d                   	pop    %ebp
 287:	c3                   	ret    
 288:	90                   	nop
 289:	8d b4 26 00 00 00 00 	lea    0x0(%esi,%eiz,1),%esi

00000290 <stat>:

int
stat(char *n, struct stat *st)
{
 290:	55                   	push   %ebp
 291:	89 e5                	mov    %esp,%ebp
 293:	56                   	push   %esi
 294:	53                   	push   %ebx
 295:	83 ec 10             	sub    $0x10,%esp
	int fd;
	int r;

	fd = open(n, O_RDONLY);
 298:	8b 45 08             	mov    0x8(%ebp),%eax
 29b:	c7 44 24 04 00 00 00 	movl   $0x0,0x4(%esp)
 2a2:	00 
 2a3:	89 04 24             	mov    %eax,(%esp)
 2a6:	e8 3d 01 00 00       	call   3e8 <open>
	if (fd < 0) return -1;
 2ab:	85 c0                	test   %eax,%eax
stat(char *n, struct stat *st)
{
	int fd;
	int r;

	fd = open(n, O_RDONLY);
 2ad:	89 c3                	mov    %eax,%ebx
	if (fd < 0) return -1;
 2af:	78 27                	js     2d8 <stat+0x48>
	r = fstat(fd, st);
 2b1:	8b 45 0c             	mov    0xc(%ebp),%eax
 2b4:	89 1c 24             	mov    %ebx,(%esp)
 2b7:	89 44 24 04          	mov    %eax,0x4(%esp)
 2bb:	e8 40 01 00 00       	call   400 <fstat>
	close(fd);
 2c0:	89 1c 24             	mov    %ebx,(%esp)
	int fd;
	int r;

	fd = open(n, O_RDONLY);
	if (fd < 0) return -1;
	r = fstat(fd, st);
 2c3:	89 c6                	mov    %eax,%esi
	close(fd);
 2c5:	e8 06 01 00 00       	call   3d0 <close>
	return r;
 2ca:	89 f0                	mov    %esi,%eax
}
 2cc:	83 c4 10             	add    $0x10,%esp
 2cf:	5b                   	pop    %ebx
 2d0:	5e                   	pop    %esi
 2d1:	5d                   	pop    %ebp
 2d2:	c3                   	ret    
 2d3:	90                   	nop
 2d4:	8d 74 26 00          	lea    0x0(%esi,%eiz,1),%esi
{
	int fd;
	int r;

	fd = open(n, O_RDONLY);
	if (fd < 0) return -1;
 2d8:	b8 ff ff ff ff       	mov    $0xffffffff,%eax
 2dd:	eb ed                	jmp    2cc <stat+0x3c>
 2df:	90                   	nop

000002e0 <atoi>:
	return r;
}

int
atoi(const char *s)
{
 2e0:	55                   	push   %ebp
 2e1:	89 e5                	mov    %esp,%ebp
 2e3:	8b 4d 08             	mov    0x8(%ebp),%ecx
 2e6:	53                   	push   %ebx
	int n;

	n = 0;
	while ('0' <= *s && *s <= '9') n= n * 10 + *s++ - '0';
 2e7:	0f be 11             	movsbl (%ecx),%edx
 2ea:	8d 42 d0             	lea    -0x30(%edx),%eax
 2ed:	3c 09                	cmp    $0x9,%al
int
atoi(const char *s)
{
	int n;

	n = 0;
 2ef:	b8 00 00 00 00       	mov    $0x0,%eax
	while ('0' <= *s && *s <= '9') n= n * 10 + *s++ - '0';
 2f4:	77 17                	ja     30d <atoi+0x2d>
 2f6:	66 90                	xchg   %ax,%ax
 2f8:	83 c1 01             	add    $0x1,%ecx
 2fb:	8d 04 80             	lea    (%eax,%eax,4),%eax
 2fe:	8d 44 42 d0          	lea    -0x30(%edx,%eax,2),%eax
 302:	0f be 11             	movsbl (%ecx),%edx
 305:	8d 5a d0             	lea    -0x30(%edx),%ebx
 308:	80 fb 09             	cmp    $0x9,%bl
 30b:	76 eb                	jbe    2f8 <atoi+0x18>
	return n;
}
 30d:	5b                   	pop    %ebx
 30e:	5d                   	pop    %ebp
 30f:	c3                   	ret    

00000310 <memmove>:

void *
memmove(void *vdst, void *vsrc, int n)
{
 310:	55                   	push   %ebp
	char *dst, *src;

	dst = vdst;
	src = vsrc;
	while (n-- > 0) *dst++= *src++;
 311:	31 d2                	xor    %edx,%edx
	return n;
}

void *
memmove(void *vdst, void *vsrc, int n)
{
 313:	89 e5                	mov    %esp,%ebp
 315:	56                   	push   %esi
 316:	8b 45 08             	mov    0x8(%ebp),%eax
 319:	53                   	push   %ebx
 31a:	8b 5d 10             	mov    0x10(%ebp),%ebx
 31d:	8b 75 0c             	mov    0xc(%ebp),%esi
	char *dst, *src;

	dst = vdst;
	src = vsrc;
	while (n-- > 0) *dst++= *src++;
 320:	85 db                	test   %ebx,%ebx
 322:	7e 12                	jle    336 <memmove+0x26>
 324:	8d 74 26 00          	lea    0x0(%esi,%eiz,1),%esi
 328:	0f b6 0c 16          	movzbl (%esi,%edx,1),%ecx
 32c:	88 0c 10             	mov    %cl,(%eax,%edx,1)
 32f:	83 c2 01             	add    $0x1,%edx
 332:	39 da                	cmp    %ebx,%edx
 334:	75 f2                	jne    328 <memmove+0x18>
	return vdst;
}
 336:	5b                   	pop    %ebx
 337:	5e                   	pop    %esi
 338:	5d                   	pop    %ebp
 339:	c3                   	ret    
 33a:	8d b6 00 00 00 00    	lea    0x0(%esi),%esi

00000340 <ps>:

//edit
void ps(void){
 340:	55                   	push   %ebp
 341:	89 e5                	mov    %esp,%ebp
 343:	56                   	push   %esi
 344:	53                   	push   %ebx
	int which = 1;
 345:	bb 01 00 00 00       	mov    $0x1,%ebx
	while (n-- > 0) *dst++= *src++;
	return vdst;
}

//edit
void ps(void){
 34a:	83 ec 40             	sub    $0x40,%esp
 34d:	8d 75 dc             	lea    -0x24(%ebp),%esi
 350:	eb 37                	jmp    389 <ps+0x49>
 352:	8d b6 00 00 00 00    	lea    0x0(%esi),%esi
	int which = 1;
	struct pstat pnode;
	while(1){
	if(procstat (which, &pnode))break;

	printf(1, "%d, %d, %c, %s\n",pnode.pid, pnode.ppid, pnode.state, pnode.name);
 358:	0f be 45 ec          	movsbl -0x14(%ebp),%eax
	which++;
 35c:	83 c3 01             	add    $0x1,%ebx
	int which = 1;
	struct pstat pnode;
	while(1){
	if(procstat (which, &pnode))break;

	printf(1, "%d, %d, %c, %s\n",pnode.pid, pnode.ppid, pnode.state, pnode.name);
 35f:	89 74 24 14          	mov    %esi,0x14(%esp)
 363:	c7 44 24 04 b0 04 00 	movl   $0x4b0,0x4(%esp)
 36a:	00 
 36b:	c7 04 24 01 00 00 00 	movl   $0x1,(%esp)
 372:	89 44 24 10          	mov    %eax,0x10(%esp)
 376:	8b 45 f4             	mov    -0xc(%ebp),%eax
 379:	89 44 24 0c          	mov    %eax,0xc(%esp)
 37d:	8b 45 f0             	mov    -0x10(%ebp),%eax
 380:	89 44 24 08          	mov    %eax,0x8(%esp)
 384:	e8 87 fc ff ff       	call   10 <printf>
//edit
void ps(void){
	int which = 1;
	struct pstat pnode;
	while(1){
	if(procstat (which, &pnode))break;
 389:	89 74 24 04          	mov    %esi,0x4(%esp)
 38d:	89 1c 24             	mov    %ebx,(%esp)
 390:	e8 b3 00 00 00       	call   448 <procstat>
 395:	85 c0                	test   %eax,%eax
 397:	74 bf                	je     358 <ps+0x18>

	printf(1, "%d, %d, %c, %s\n",pnode.pid, pnode.ppid, pnode.state, pnode.name);
	which++;
	}
}
 399:	83 c4 40             	add    $0x40,%esp
 39c:	5b                   	pop    %ebx
 39d:	5e                   	pop    %esi
 39e:	5d                   	pop    %ebp
 39f:	c3                   	ret    

000003a0 <fork>:
  name: \
    movl $SYS_ ## name, %eax; \
    int $T_SYSCALL; \
    ret

SYSCALL(fork)
 3a0:	b8 01 00 00 00       	mov    $0x1,%eax
 3a5:	cd 40                	int    $0x40
 3a7:	c3                   	ret    

000003a8 <exit>:
SYSCALL(exit)
 3a8:	b8 02 00 00 00       	mov    $0x2,%eax
 3ad:	cd 40                	int    $0x40
 3af:	c3                   	ret    

000003b0 <wait>:
SYSCALL(wait)
 3b0:	b8 03 00 00 00       	mov    $0x3,%eax
 3b5:	cd 40                	int    $0x40
 3b7:	c3                   	ret    

000003b8 <pipe>:
SYSCALL(pipe)
 3b8:	b8 04 00 00 00       	mov    $0x4,%eax
 3bd:	cd 40                	int    $0x40
 3bf:	c3                   	ret    

000003c0 <read>:
SYSCALL(read)
 3c0:	b8 05 00 00 00       	mov    $0x5,%eax
 3c5:	cd 40                	int    $0x40
 3c7:	c3                   	ret    

000003c8 <write>:
SYSCALL(write)
 3c8:	b8 10 00 00 00       	mov    $0x10,%eax
 3cd:	cd 40                	int    $0x40
 3cf:	c3                   	ret    

000003d0 <close>:
SYSCALL(close)
 3d0:	b8 15 00 00 00       	mov    $0x15,%eax
 3d5:	cd 40                	int    $0x40
 3d7:	c3                   	ret    

000003d8 <kill>:
SYSCALL(kill)
 3d8:	b8 06 00 00 00       	mov    $0x6,%eax
 3dd:	cd 40                	int    $0x40
 3df:	c3                   	ret    

000003e0 <exec>:
SYSCALL(exec)
 3e0:	b8 07 00 00 00       	mov    $0x7,%eax
 3e5:	cd 40                	int    $0x40
 3e7:	c3                   	ret    

000003e8 <open>:
SYSCALL(open)
 3e8:	b8 0f 00 00 00       	mov    $0xf,%eax
 3ed:	cd 40                	int    $0x40
 3ef:	c3                   	ret    

000003f0 <mknod>:
SYSCALL(mknod)
 3f0:	b8 11 00 00 00       	mov    $0x11,%eax
 3f5:	cd 40                	int    $0x40
 3f7:	c3                   	ret    

000003f8 <unlink>:
SYSCALL(unlink)
 3f8:	b8 12 00 00 00       	mov    $0x12,%eax
 3fd:	cd 40                	int    $0x40
 3ff:	c3                   	ret    

00000400 <fstat>:
SYSCALL(fstat)
 400:	b8 08 00 00 00       	mov    $0x8,%eax
 405:	cd 40                	int    $0x40
 407:	c3                   	ret    

00000408 <link>:
SYSCALL(link)
 408:	b8 13 00 00 00       	mov    $0x13,%eax
 40d:	cd 40                	int    $0x40
 40f:	c3                   	ret    

00000410 <mkdir>:
SYSCALL(mkdir)
 410:	b8 14 00 00 00       	mov    $0x14,%eax
 415:	cd 40                	int    $0x40
 417:	c3                   	ret    

00000418 <chdir>:
SYSCALL(chdir)
 418:	b8 09 00 00 00       	mov    $0x9,%eax
 41d:	cd 40                	int    $0x40
 41f:	c3                   	ret    

00000420 <dup>:
SYSCALL(dup)
 420:	b8 0a 00 00 00       	mov    $0xa,%eax
 425:	cd 40                	int    $0x40
 427:	c3                   	ret    

00000428 <getpid>:
SYSCALL(getpid)
 428:	b8 0b 00 00 00       	mov    $0xb,%eax
 42d:	cd 40                	int    $0x40
 42f:	c3                   	ret    

00000430 <sbrk>:
SYSCALL(sbrk)
 430:	b8 0c 00 00 00       	mov    $0xc,%eax
 435:	cd 40                	int    $0x40
 437:	c3                   	ret    

00000438 <sleep>:
SYSCALL(sleep)
 438:	b8 0d 00 00 00       	mov    $0xd,%eax
 43d:	cd 40                	int    $0x40
 43f:	c3                   	ret    

00000440 <uptime>:
SYSCALL(uptime)
 440:	b8 0e 00 00 00       	mov    $0xe,%eax
 445:	cd 40                	int    $0x40
 447:	c3                   	ret    

00000448 <procstat>:
SYSCALL(procstat)
 448:	b8 16 00 00 00       	mov    $0x16,%eax
 44d:	cd 40                	int    $0x40
 44f:	c3                   	ret    
